; ModuleID = 'source-C-CXX/42/1073.c'
source_filename = "source-C-CXX/42/1073.c"
target datalayout = "e-m:e-p270:32:32-p271:32:32-p272:64:64-i64:64-f80:128-n8:16:32:64-S128"
target triple = "x86_64-pc-linux-gnu"

@.str = private unnamed_addr constant [3 x i8] c"%d\00", align 1
@.str.1 = private unnamed_addr constant [7 x i8] c"%d %d\0A\00", align 1

; Function Attrs: nofree nounwind sspstrong uwtable
define dso_local i32 @main() local_unnamed_addr #0 {
  %1 = alloca i32, align 4
  %2 = bitcast i32* %1 to i8*
  call void @llvm.lifetime.start.p0i8(i64 4, i8* nonnull %2) #4
  %3 = call i32 (i8*, ...) @__isoc99_scanf(i8* getelementptr inbounds ([3 x i8], [3 x i8]* @.str, i64 0, i64 0), i32* nonnull %1)
  %4 = load i32, i32* %1, align 4, !tbaa !5
  %5 = icmp slt i32 %4, 4
  br i1 %5, label %42, label %6

6:                                                ; preds = %0, %37
  %7 = phi i32 [ %38, %37 ], [ %4, %0 ]
  %8 = phi i32 [ %39, %37 ], [ 2, %0 ]
  %9 = lshr i32 %8, 1
  %10 = call i32 @llvm.umax.i32(i32 %9, i32 2)
  %11 = icmp ult i32 %8, 4
  br i1 %11, label %19, label %15

12:                                               ; preds = %15
  %13 = add nuw nsw i32 %16, 1
  %14 = icmp eq i32 %16, %10
  br i1 %14, label %19, label %15, !llvm.loop !9

15:                                               ; preds = %6, %12
  %16 = phi i32 [ %13, %12 ], [ 2, %6 ]
  %17 = urem i32 %8, %16
  %18 = icmp eq i32 %17, 0
  br i1 %18, label %37, label %12

19:                                               ; preds = %12, %6
  %20 = and i32 %8, 1
  %21 = icmp eq i32 %20, 0
  br i1 %21, label %37, label %22

22:                                               ; preds = %19
  %23 = sub nsw i32 %7, %8
  %24 = icmp slt i32 %23, 4
  br i1 %24, label %34, label %25

25:                                               ; preds = %22
  %26 = lshr i32 %23, 1
  br label %30

27:                                               ; preds = %30
  %28 = add nuw nsw i32 %31, 1
  %29 = icmp eq i32 %31, %26
  br i1 %29, label %34, label %30, !llvm.loop !11

30:                                               ; preds = %25, %27
  %31 = phi i32 [ %28, %27 ], [ 2, %25 ]
  %32 = srem i32 %23, %31
  %33 = icmp eq i32 %32, 0
  br i1 %33, label %37, label %27

34:                                               ; preds = %27, %22
  %35 = call i32 (i8*, ...) @printf(i8* nonnull dereferenceable(1) getelementptr inbounds ([7 x i8], [7 x i8]* @.str.1, i64 0, i64 0), i32 %8, i32 %23)
  %36 = load i32, i32* %1, align 4, !tbaa !5
  br label %37

37:                                               ; preds = %15, %30, %19, %34
  %38 = phi i32 [ %7, %19 ], [ %36, %34 ], [ %7, %30 ], [ %7, %15 ]
  %39 = add nuw nsw i32 %8, 1
  %40 = sdiv i32 %38, 2
  %41 = icmp slt i32 %8, %40
  br i1 %41, label %6, label %42, !llvm.loop !12

42:                                               ; preds = %37, %0
  call void @llvm.lifetime.end.p0i8(i64 4, i8* nonnull %2) #4
  ret i32 0
}

; Function Attrs: argmemonly mustprogress nofree nosync nounwind willreturn
declare void @llvm.lifetime.start.p0i8(i64 immarg, i8* nocapture) #1

; Function Attrs: nofree nounwind
declare noundef i32 @__isoc99_scanf(i8* nocapture noundef readonly, ...) local_unnamed_addr #2

; Function Attrs: nofree nounwind
declare noundef i32 @printf(i8* nocapture noundef readonly, ...) local_unnamed_addr #2

; Function Attrs: argmemonly mustprogress nofree nosync nounwind willreturn
declare void @llvm.lifetime.end.p0i8(i64 immarg, i8* nocapture) #1

; Function Attrs: nofree nosync nounwind readnone speculatable willreturn
declare i32 @llvm.umax.i32(i32, i32) #3


!llvm.module.flags = !{!0, !1, !2, !3}
!llvm.ident = !{!4}

!0 = !{i32 1, !"wchar_size", i32 4}
!1 = !{i32 7, !"PIC Level", i32 2}
!2 = !{i32 7, !"PIE Level", i32 2}
!3 = !{i32 7, !"uwtable", i32 1}
!4 = !{!"clang version 13.0.0"}
!5 = !{!6, !6, i64 0}
!6 = !{!"int", !7, i64 0}
!7 = !{!"omnipotent char", !8, i64 0}
!8 = !{!"Simple C/C++ TBAA"}
!9 = distinct !{!9, !10}
!10 = !{!"llvm.loop.mustprogress"}
!11 = distinct !{!11, !10}
!12 = distinct !{!12, !10}
